; Function Attrs: mustprogress uwtable
define dso_local void @_ZN17cmFindPathCommand19FindFrameworkHeaderB5cxx11ER20cmFindBaseDebugState(ptr dead_on_unwind noalias writable sret(%"class.std::__cxx11::basic_string") align 8 %0, ptr noundef nonnull align 8 dereferenceable(601) %1, ptr noundef nonnull align 8 dereferenceable(128) %2) local_unnamed_addr #3 align 2 personality ptr @__gxx_personality_v0 {
  %4 = alloca %"class.std::allocator", align 1
  %5 = getelementptr inbounds i8, ptr %1, i64 496
  %6 = load ptr, ptr %5, align 8
  %7 = getelementptr inbounds i8, ptr %1, i64 504
  %8 = load ptr, ptr %7, align 8
  %.not23 = icmp eq ptr %6, %8
  br i1 %.not23, label %._crit_edge27, label %.lr.ph26

.lr.ph26:                                         ; preds = %3
  %9 = getelementptr inbounds i8, ptr %1, i64 296
  %10 = getelementptr inbounds i8, ptr %1, i64 304
  %11 = load ptr, ptr %9, align 8
  %12 = load ptr, ptr %10, align 8
  %13 = icmp eq ptr %11, %12
  br i1 %13, label %._crit_edge27, label %.lr.ph26.split

.lr.ph26.split:                                   ; preds = %.lr.ph26, %._crit_edge
  %.sroa.017.024 = phi ptr [ %19, %._crit_edge ], [ %6, %.lr.ph26 ]
  %14 = load ptr, ptr %9, align 8
  %15 = load ptr, ptr %10, align 8
  %.not2021 = icmp eq ptr %14, %15
  br i1 %.not2021, label %._crit_edge, label %.lr.ph

.lr.ph:                                           ; preds = %.lr.ph26.split, %17
  %.sroa.013.022 = phi ptr [ %18, %17 ], [ %14, %.lr.ph26.split ]
  tail call void @_ZNK17cmFindPathCommand21FindHeaderInFrameworkERKNSt7__cxx1112basic_stringIcSt11char_traitsIcESaIcEEES7_R20cmFindBaseDebugState(ptr dead_on_unwind writable sret(%"class.std::__cxx11::basic_string") align 8 %0, ptr noundef nonnull align 8 dereferenceable(601) %1, ptr noundef nonnull align 8 dereferenceable(32) %.sroa.017.024, ptr noundef nonnull align 8 dereferenceable(32) %.sroa.013.022, ptr noundef nonnull align 8 dereferenceable(128) %2)
  %16 = tail call noundef zeroext i1 @_ZNKSt7__cxx1112basic_stringIcSt11char_traitsIcESaIcEE5emptyEv(ptr noundef nonnull align 8 dereferenceable(32) %0) #12
  br i1 %16, label %17, label %.loopexit

17:                                               ; preds = %.lr.ph
  tail call void @_ZNSt7__cxx1112basic_stringIcSt11char_traitsIcESaIcEED1Ev(ptr noundef nonnull align 8 dereferenceable(32) %0) #12
  %18 = getelementptr inbounds i8, ptr %.sroa.013.022, i64 32
  %.not20 = icmp eq ptr %18, %15
  br i1 %.not20, label %._crit_edge, label %.lr.ph

._crit_edge:                                      ; preds = %17, %.lr.ph26.split
  %19 = getelementptr inbounds i8, ptr %.sroa.017.024, i64 32
  %.not = icmp eq ptr %19, %8
  br i1 %.not, label %._crit_edge27, label %.lr.ph26.split, !llvm.loop !7

._crit_edge27:                                    ; preds = %._crit_edge, %.lr.ph26, %3
  call void @_ZNSaIcEC1Ev(ptr noundef nonnull align 1 dereferenceable(1) %4) #12
  %20 = invoke noundef ptr @_ZNSt7__cxx1112basic_stringIcSt11char_traitsIcESaIcEE13_M_local_dataEv(ptr noundef nonnull align 8 dereferenceable(32) %0)
          to label %.noexc unwind label %23

.noexc:                                           ; preds = %._crit_edge27
  invoke void @_ZNSt7__cxx1112basic_stringIcSt11char_traitsIcESaIcEE12_Alloc_hiderC1EPcRKS3_(ptr noundef nonnull align 8 dereferenceable(8) %0, ptr noundef %20, ptr noundef nonnull align 1 dereferenceable(1) %4)
          to label %.noexc12 unwind label %23

.noexc12:                                         ; preds = %.noexc
  invoke void @_ZNSt7__cxx1112basic_stringIcSt11char_traitsIcESaIcEE12_M_constructIPKcEEvT_S8_St20forward_iterator_tag(ptr noundef nonnull align 8 dereferenceable(32) %0, ptr noundef nonnull @.str.6, ptr noundef nonnull @.str.6)
          to label %_ZNSt7__cxx1112basic_stringIcSt11char_traitsIcESaIcEEC2IS3_EEPKcRKS3_.exit unwind label %21

21:                                               ; preds = %.noexc12
  %22 = landingpad { ptr, i32 }
          cleanup
  call void @_ZNSaIcED2Ev(ptr noundef nonnull align 1 dereferenceable(1) %0) #12
  br label %.body

_ZNSt7__cxx1112basic_stringIcSt11char_traitsIcESaIcEEC2IS3_EEPKcRKS3_.exit: ; preds = %.noexc12
  call void @_ZNSaIcED1Ev(ptr noundef nonnull align 1 dereferenceable(1) %4) #12
  br label %.loopexit

23:                                               ; preds = %.noexc, %._crit_edge27
  %24 = landingpad { ptr, i32 }
          cleanup
  br label %.body

.body:                                            ; preds = %21, %23
  %eh.lpad-body = phi { ptr, i32 } [ %24, %23 ], [ %22, %21 ]
  call void @_ZNSaIcED1Ev(ptr noundef nonnull align 1 dereferenceable(1) %4) #12
  resume { ptr, i32 } %eh.lpad-body

.loopexit:                                        ; preds = %.lr.ph, %_ZNSt7__cxx1112basic_stringIcSt11char_traitsIcESaIcEEC2IS3_EEPKcRKS3_.exit
  ret void
}